; Function Attrs: nounwind uwtable
define ptr @Cudd_addFindMax(ptr noundef %0, ptr noundef %1) #0 {
  %3 = load i32, ptr %1, align 8, !tbaa !3
  %4 = icmp eq i32 %3, 2147483647
  br i1 %4, label %common.ret24, label %5

5:                                                ; preds = %2
  %6 = tail call ptr @cuddCacheLookup1(ptr noundef %0, ptr noundef nonnull @Cudd_addFindMax, ptr noundef nonnull %1) #2
  %.not = icmp eq ptr %6, null
  br i1 %.not, label %7, label %common.ret24

7:                                                ; preds = %5
  %8 = getelementptr inbounds nuw i8, ptr %1, i64 16
  %9 = load ptr, ptr %8, align 8, !tbaa !11
  %10 = tail call ptr @Cudd_addFindMax(ptr noundef %0, ptr noundef %9)
  %11 = getelementptr inbounds nuw i8, ptr %0, i64 56
  %12 = load ptr, ptr %11, align 8, !tbaa !12
  %13 = icmp eq ptr %10, %12
  br i1 %13, label %common.ret24, label %14

common.ret24:                                     ; preds = %7, %5, %2, %14
  %common.ret24.op = phi ptr [ %23, %14 ], [ %1, %2 ], [ %6, %5 ], [ %10, %7 ]
  ret ptr %common.ret24.op

14:                                               ; preds = %7
  %15 = getelementptr inbounds nuw i8, ptr %1, i64 24
  %16 = load ptr, ptr %15, align 8, !tbaa !11
  %17 = tail call ptr @Cudd_addFindMax(ptr noundef nonnull %0, ptr noundef %16)
  %18 = getelementptr inbounds nuw i8, ptr %10, i64 16
  %19 = load double, ptr %18, align 8, !tbaa !11
  %20 = getelementptr inbounds nuw i8, ptr %17, i64 16
  %21 = load double, ptr %20, align 8, !tbaa !11
  %22 = fcmp oge double %19, %21
  %23 = select i1 %22, ptr %10, ptr %17
  tail call void @cuddCacheInsert1(ptr noundef nonnull %0, ptr noundef nonnull @Cudd_addFindMax, ptr noundef nonnull %1, ptr noundef %23) #2
  br label %common.ret24
}